target datalayout = "e-m:e-p270:32:32-p271:32:32-p272:64:64-i64:64-i128:128-f80:128-n8:16:32:64-S128"
target triple = "x86_64-pc-linux-gnu"

%struct.php_file_globals = type { i32, i64, i8, i64, ptr, ptr, ptr, ptr, ptr, ptr, ptr, i32, %struct.hostent, ptr, i64 }
%struct.hostent = type { ptr, ptr, i32, i32, ptr }
%struct._zend_executor_globals = type { %struct._zval_struct, %struct._zval_struct, [32 x ptr], ptr, ptr, %struct._zend_array, %struct._zend_array, ptr, i32, i32, ptr, ptr, ptr, ptr, ptr, ptr, i64, ptr, ptr, i32, i32, i64, i32, i32, i32, i8, i8, %struct.zend_atomic_bool_s, %struct.zend_atomic_bool_s, ptr, i64, ptr, ptr, %struct._zend_array, %struct._zend_array, i32, i8, %struct._zval_struct, %struct._zval_struct, %struct._zend_stack, %struct._zend_stack, %struct._zend_stack, ptr, i32, i32, i64, ptr, ptr, ptr, %struct._zend_objects_store, ptr, ptr, ptr, [3 x %struct._zend_op], ptr, i8, i8, i64, i32, i32, ptr, [16 x %struct._HashTableIterator], ptr, %union._zend_function, %struct._zend_op, %struct._zend_array, i64, %struct.zend_get_gc_buffer, ptr, ptr, ptr, i64, i8, i32, ptr, ptr, i64, %struct._zend_call_stack, i64, i64, [6 x ptr] }
%struct.zend_atomic_bool_s = type { i8 }
%struct._zval_struct = type { %union._zend_value, %union.anon, %union.anon.2 }
%union._zend_value = type { i64 }
%union.anon = type { i32 }
%union.anon.2 = type { i32 }
%struct._zend_stack = type { i32, i32, i32, ptr }
%struct._zend_objects_store = type { ptr, i32, i32, i32 }
%struct._HashTableIterator = type { ptr, i32, i32 }
%union._zend_function = type { %struct._zend_op_array }
%struct._zend_op_array = type { i8, [3 x i8], i32, ptr, ptr, ptr, i32, i32, ptr, ptr, ptr, ptr, i32, i32, i32, i32, ptr, ptr, ptr, ptr, ptr, i32, i32, ptr, ptr, ptr, i32, i32, i32, i32, ptr, ptr, [6 x ptr] }
%struct._zend_op = type { ptr, %union._znode_op, %union._znode_op, %union._znode_op, i32, i32, i8, i8, i8, i8 }
%union._znode_op = type { i32 }
%struct._zend_array = type { %struct._zend_refcounted_h, %union.anon.4, i32, %union.anon.6, i32, i32, i32, i32, i64, ptr }
%struct._zend_refcounted_h = type { i32, %union.anon.3 }
%union.anon.3 = type { i32 }
%union.anon.4 = type { i32 }
%union.anon.6 = type { ptr }
%struct.zend_get_gc_buffer = type { ptr, ptr, ptr }
%struct._zend_call_stack = type { ptr, i64 }
%struct._zend_execute_data = type { ptr, ptr, ptr, ptr, %struct._zval_struct, ptr, ptr, ptr, ptr }
%struct._php_stream_context = type { ptr, %struct._zval_struct, ptr }
%struct._zend_resource = type { %struct._zend_refcounted_h, i64, i32, ptr }
%struct._zend_object = type { %struct._zend_refcounted_h, i32, ptr, ptr, ptr, [1 x %struct._zval_struct] }
%struct._zend_object_handlers = type { i32, ptr, ptr, ptr, ptr, ptr, ptr, ptr, ptr, ptr, ptr, ptr, ptr, ptr, ptr, ptr, ptr, ptr, ptr, ptr, ptr, ptr, ptr, ptr, ptr }

@file_globals = external global %struct.php_file_globals, align 8
@executor_globals = external global %struct._zend_executor_globals, align 8

; Function Attrs: nounwind uwtable
define hidden void @zif_stream_context_get_default(ptr noundef %0, ptr noundef %1) #0 {
  %3 = alloca ptr, align 8
  %4 = alloca ptr, align 8
  %5 = alloca ptr, align 8
  %6 = alloca ptr, align 8
  %7 = alloca ptr, align 8
  %8 = alloca i32, align 4
  %9 = alloca i1, align 1
  %10 = alloca ptr, align 8
  %11 = alloca ptr, align 8
  %12 = alloca i8, align 1
  %13 = alloca i8, align 1
  %14 = alloca i8, align 1
  %15 = alloca ptr, align 8
  %16 = alloca ptr, align 8
  %17 = alloca ptr, align 8
  %18 = alloca ptr, align 8
  %19 = alloca ptr, align 8
  %20 = alloca ptr, align 8
  %21 = alloca i32, align 4
  %22 = alloca i32, align 4
  %23 = alloca i32, align 4
  %24 = alloca i32, align 4
  %25 = alloca i32, align 4
  %26 = alloca ptr, align 8
  %27 = alloca ptr, align 8
  %28 = alloca i32, align 4
  %29 = alloca ptr, align 8
  %30 = alloca i8, align 1
  %31 = alloca i8, align 1
  %32 = alloca i32, align 4
  %33 = alloca ptr, align 8
  store ptr %0, ptr %17, align 8
  store ptr %1, ptr %18, align 8
  store ptr null, ptr %19, align 8
  br label %34

34:                                               ; preds = %2
  store i32 0, ptr %21, align 4
  store i32 0, ptr %22, align 4
  store i32 1, ptr %23, align 4
  %35 = load ptr, ptr %17, align 8
  %36 = getelementptr inbounds %struct._zend_execute_data, ptr %35, i32 0, i32 4
  %37 = getelementptr inbounds %struct._zval_struct, ptr %36, i32 0, i32 2
  %38 = load i32, ptr %37, align 4
  store i32 %38, ptr %24, align 4
  store i32 0, ptr %25, align 4
  store ptr null, ptr %27, align 8
  store i32 0, ptr %28, align 4
  store ptr null, ptr %29, align 8
  store i8 0, ptr %30, align 1
  store i8 0, ptr %31, align 1
  store i32 0, ptr %32, align 4
  br label %39

39:                                               ; preds = %34
  %40 = load i32, ptr %24, align 4
  %41 = load i32, ptr %22, align 4
  %42 = icmp ult i32 %40, %41
  %43 = xor i1 %42, true
  %44 = xor i1 %43, true
  %45 = zext i1 %44 to i32
  %46 = sext i32 %45 to i64
  %47 = icmp ne i64 %46, 0
  br i1 %47, label %57, label %48

48:                                               ; preds = %39
  %49 = load i32, ptr %24, align 4
  %50 = load i32, ptr %23, align 4
  %51 = icmp ugt i32 %49, %50
  %52 = xor i1 %51, true
  %53 = xor i1 %52, true
  %54 = zext i1 %53 to i32
  %55 = sext i32 %54 to i64
  %56 = icmp ne i64 %55, 0
  br i1 %56, label %57, label %60

57:                                               ; preds = %48, %39
  %58 = load i32, ptr %22, align 4
  %59 = load i32, ptr %23, align 4
  call void @zend_wrong_parameters_count_error(i32 noundef %58, i32 noundef %59)
  store i32 1, ptr %32, align 4
  br label %210

60:                                               ; preds = %48
  %61 = load ptr, ptr %17, align 8
  %62 = getelementptr inbounds %struct._zval_struct, ptr %61, i64 4
  store ptr %62, ptr %26, align 8
  store i8 1, ptr %31, align 1
  %63 = load i32, ptr %25, align 4
  %64 = add i32 %63, 1
  store i32 %64, ptr %25, align 4
  %65 = load i32, ptr %25, align 4
  %66 = load i32, ptr %22, align 4
  %67 = icmp ule i32 %65, %66
  br i1 %67, label %73, label %68

68:                                               ; preds = %60
  %69 = load i8, ptr %31, align 1
  %70 = trunc i8 %69 to i1
  %71 = zext i1 %70 to i32
  %72 = icmp eq i32 %71, 1
  br label %73

73:                                               ; preds = %68, %60
  %74 = phi i1 [ true, %60 ], [ %72, %68 ]
  call void @llvm.assume(i1 %74)
  %75 = load i32, ptr %25, align 4
  %76 = load i32, ptr %22, align 4
  %77 = icmp ugt i32 %75, %76
  br i1 %77, label %83, label %78

78:                                               ; preds = %73
  %79 = load i8, ptr %31, align 1
  %80 = trunc i8 %79 to i1
  %81 = zext i1 %80 to i32
  %82 = icmp eq i32 %81, 0
  br label %83

83:                                               ; preds = %78, %73
  %84 = phi i1 [ true, %73 ], [ %82, %78 ]
  call void @llvm.assume(i1 %84)
  %85 = load i8, ptr %31, align 1
  %86 = trunc i8 %85 to i1
  br i1 %86, label %87, label %98

87:                                               ; preds = %83
  %88 = load i32, ptr %25, align 4
  %89 = load i32, ptr %24, align 4
  %90 = icmp ugt i32 %88, %89
  %91 = xor i1 %90, true
  %92 = xor i1 %91, true
  %93 = zext i1 %92 to i32
  %94 = sext i32 %93 to i64
  %95 = icmp ne i64 %94, 0
  br i1 %95, label %96, label %97

96:                                               ; preds = %87
  br label %210

97:                                               ; preds = %87
  br label %98

98:                                               ; preds = %97, %83
  %99 = load ptr, ptr %26, align 8
  %100 = getelementptr inbounds %struct._zval_struct, ptr %99, i32 1
  store ptr %100, ptr %26, align 8
  %101 = load ptr, ptr %26, align 8
  store ptr %101, ptr %27, align 8
  %102 = load ptr, ptr %27, align 8
  store ptr %102, ptr %10, align 8
  store ptr %19, ptr %11, align 8
  store i8 1, ptr %12, align 1
  store i8 0, ptr %13, align 1
  store i8 0, ptr %14, align 1
  %103 = load ptr, ptr %10, align 8
  store ptr %103, ptr %5, align 8
  %104 = load ptr, ptr %5, align 8
  %105 = getelementptr inbounds %struct._zval_struct, ptr %104, i32 0, i32 1
  %106 = load i8, ptr %105, align 8
  %107 = zext i8 %106 to i32
  %108 = icmp eq i32 %107, 7
  br i1 %108, label %109, label %113

109:                                              ; preds = %98
  %110 = load ptr, ptr %10, align 8
  %111 = load ptr, ptr %110, align 8
  %112 = load ptr, ptr %11, align 8
  store ptr %111, ptr %112, align 8
  br label %191

113:                                              ; preds = %98
  %114 = load i8, ptr %13, align 1
  %115 = trunc i8 %114 to i1
  br i1 %115, label %116, label %177

116:                                              ; preds = %113
  %117 = load ptr, ptr %10, align 8
  store ptr %117, ptr %6, align 8
  %118 = load ptr, ptr %6, align 8
  %119 = getelementptr inbounds %struct._zval_struct, ptr %118, i32 0, i32 1
  %120 = load i8, ptr %119, align 8
  %121 = zext i8 %120 to i32
  %122 = icmp eq i32 %121, 8
  br i1 %122, label %123, label %177

123:                                              ; preds = %116
  %124 = load ptr, ptr %10, align 8
  %125 = load ptr, ptr %124, align 8
  store ptr %125, ptr %15, align 8
  %126 = load i8, ptr %14, align 1
  %127 = trunc i8 %126 to i1
  br i1 %127, label %128, label %168

128:                                              ; preds = %123
  %129 = load ptr, ptr %15, align 8
  %130 = getelementptr inbounds %struct._zend_object, ptr %129, i32 0, i32 4
  %131 = load ptr, ptr %130, align 8
  %132 = icmp ne ptr %131, null
  br i1 %132, label %133, label %168

133:                                              ; preds = %128
  %134 = load ptr, ptr %15, align 8
  %135 = getelementptr inbounds %struct._zend_object, ptr %134, i32 0, i32 4
  %136 = load ptr, ptr %135, align 8
  store ptr %136, ptr %3, align 8
  %137 = load ptr, ptr %3, align 8
  %138 = load i32, ptr %137, align 4
  %139 = icmp ugt i32 %138, 1
  br i1 %139, label %140, label %168

140:                                              ; preds = %133
  %141 = load ptr, ptr %15, align 8
  %142 = getelementptr inbounds %struct._zend_object, ptr %141, i32 0, i32 4
  %143 = load ptr, ptr %142, align 8
  %144 = getelementptr inbounds %struct._zend_refcounted_h, ptr %143, i32 0, i32 1
  %145 = load i32, ptr %144, align 4
  store i32 %145, ptr %8, align 4
  %146 = load i32, ptr %8, align 4
  %147 = and i32 %146, 1008
  %148 = and i32 %147, 64
  %149 = icmp ne i32 %148, 0
  %150 = xor i1 %149, true
  br i1 %150, label %151, label %161

151:                                              ; preds = %140
  %152 = load ptr, ptr %15, align 8
  %153 = getelementptr inbounds %struct._zend_object, ptr %152, i32 0, i32 4
  %154 = load ptr, ptr %153, align 8
  store ptr %154, ptr %4, align 8
  %155 = load ptr, ptr %4, align 8
  %156 = load i32, ptr %155, align 4
  %157 = icmp ugt i32 %156, 0
  call void @llvm.assume(i1 %157)
  %158 = load ptr, ptr %4, align 8
  %159 = load i32, ptr %158, align 4
  %160 = add i32 %159, -1
  store i32 %160, ptr %158, align 4
  br label %161

161:                                              ; preds = %151, %140
  %162 = load ptr, ptr %15, align 8
  %163 = getelementptr inbounds %struct._zend_object, ptr %162, i32 0, i32 4
  %164 = load ptr, ptr %163, align 8
  %165 = call ptr @zend_array_dup(ptr noundef %164) #9
  %166 = load ptr, ptr %15, align 8
  %167 = getelementptr inbounds %struct._zend_object, ptr %166, i32 0, i32 4
  store ptr %165, ptr %167, align 8
  br label %168

168:                                              ; preds = %161, %133, %128, %123
  %169 = load ptr, ptr %15, align 8
  %170 = getelementptr inbounds %struct._zend_object, ptr %169, i32 0, i32 3
  %171 = load ptr, ptr %170, align 8
  %172 = getelementptr inbounds %struct._zend_object_handlers, ptr %171, i32 0, i32 13
  %173 = load ptr, ptr %172, align 8
  %174 = load ptr, ptr %15, align 8
  %175 = call ptr %173(ptr noundef %174) #9
  %176 = load ptr, ptr %11, align 8
  store ptr %175, ptr %176, align 8
  br label %190

177:                                              ; preds = %116, %113
  %178 = load i8, ptr %12, align 1
  %179 = trunc i8 %178 to i1
  br i1 %179, label %180, label %189

180:                                              ; preds = %177
  %181 = load ptr, ptr %10, align 8
  store ptr %181, ptr %7, align 8
  %182 = load ptr, ptr %7, align 8
  %183 = getelementptr inbounds %struct._zval_struct, ptr %182, i32 0, i32 1
  %184 = load i8, ptr %183, align 8
  %185 = zext i8 %184 to i32
  %186 = icmp eq i32 %185, 1
  br i1 %186, label %187, label %189

187:                                              ; preds = %180
  %188 = load ptr, ptr %11, align 8
  store ptr null, ptr %188, align 8
  br label %190

189:                                              ; preds = %180, %177
  store i1 false, ptr %9, align 1
  br label %192

190:                                              ; preds = %187, %168
  br label %191

191:                                              ; preds = %190, %109
  store i1 true, ptr %9, align 1
  br label %192

192:                                              ; preds = %191, %189
  %193 = load i1, ptr %9, align 1
  %194 = xor i1 %193, true
  %195 = xor i1 %194, true
  %196 = xor i1 %195, true
  %197 = zext i1 %196 to i32
  %198 = sext i32 %197 to i64
  %199 = icmp ne i64 %198, 0
  br i1 %199, label %200, label %201

200:                                              ; preds = %192
  store i32 7, ptr %28, align 4
  store i32 9, ptr %32, align 4
  br label %210

201:                                              ; preds = %192
  %202 = load i32, ptr %25, align 4
  %203 = load i32, ptr %23, align 4
  %204 = icmp eq i32 %202, %203
  br i1 %204, label %208, label %205

205:                                              ; preds = %201
  %206 = load i32, ptr %23, align 4
  %207 = icmp eq i32 %206, -1
  br label %208

208:                                              ; preds = %205, %201
  %209 = phi i1 [ true, %201 ], [ %207, %205 ]
  call void @llvm.assume(i1 %209)
  br label %210

210:                                              ; preds = %208, %200, %96, %57
  %211 = load i32, ptr %32, align 4
  %212 = icmp ne i32 %211, 0
  %213 = xor i1 %212, true
  %214 = xor i1 %213, true
  %215 = zext i1 %214 to i32
  %216 = sext i32 %215 to i64
  %217 = icmp ne i64 %216, 0
  br i1 %217, label %218, label %224

218:                                              ; preds = %210
  %219 = load i32, ptr %32, align 4
  %220 = load i32, ptr %25, align 4
  %221 = load ptr, ptr %29, align 8
  %222 = load i32, ptr %28, align 4
  %223 = load ptr, ptr %27, align 8
  call void @zend_wrong_parameter_error(i32 noundef %219, i32 noundef %220, ptr noundef %221, i32 noundef %222, ptr noundef %223)
  br label %263

224:                                              ; preds = %210
  br label %225

225:                                              ; preds = %224
  %226 = load ptr, ptr getelementptr inbounds (%struct.php_file_globals, ptr @file_globals, i32 0, i32 7), align 8
  %227 = icmp eq ptr %226, null
  br i1 %227, label %228, label %230

228:                                              ; preds = %225
  %229 = call ptr @php_stream_context_alloc()
  store ptr %229, ptr getelementptr inbounds (%struct.php_file_globals, ptr @file_globals, i32 0, i32 7), align 8
  br label %230

230:                                              ; preds = %228, %225
  %231 = load ptr, ptr getelementptr inbounds (%struct.php_file_globals, ptr @file_globals, i32 0, i32 7), align 8
  store ptr %231, ptr %20, align 8
  %232 = load ptr, ptr %19, align 8
  %233 = icmp ne ptr %232, null
  br i1 %233, label %234, label %245

234:                                              ; preds = %230
  %235 = load ptr, ptr %20, align 8
  %236 = load ptr, ptr %19, align 8
  %237 = call i32 @parse_context_options(ptr noundef %235, ptr noundef %236)
  %238 = icmp eq i32 %237, -1
  br i1 %238, label %239, label %244

239:                                              ; preds = %234
  br label %240

240:                                              ; preds = %239
  %241 = load ptr, ptr getelementptr inbounds (%struct._zend_executor_globals, ptr @executor_globals, i32 0, i32 50), align 8
  %242 = icmp ne ptr %241, null
  call void @llvm.assume(i1 %242)
  br label %263

243:                                              ; No predecessors!
  br label %244

244:                                              ; preds = %243, %234
  br label %245

245:                                              ; preds = %244, %230
  br label %246

246:                                              ; preds = %245
  %247 = load ptr, ptr %18, align 8
  store ptr %247, ptr %33, align 8
  %248 = load ptr, ptr %20, align 8
  %249 = getelementptr inbounds %struct._php_stream_context, ptr %248, i32 0, i32 2
  %250 = load ptr, ptr %249, align 8
  %251 = load ptr, ptr %33, align 8
  %252 = getelementptr inbounds %struct._zval_struct, ptr %251, i32 0, i32 0
  store ptr %250, ptr %252, align 8
  %253 = load ptr, ptr %33, align 8
  %254 = getelementptr inbounds %struct._zval_struct, ptr %253, i32 0, i32 1
  store i32 265, ptr %254, align 8
  br label %255

255:                                              ; preds = %246
  %256 = load ptr, ptr %20, align 8
  %257 = getelementptr inbounds %struct._php_stream_context, ptr %256, i32 0, i32 2
  %258 = load ptr, ptr %257, align 8
  %259 = getelementptr inbounds %struct._zend_resource, ptr %258, i32 0, i32 0
  store ptr %259, ptr %16, align 8
  %260 = load ptr, ptr %16, align 8
  %261 = load i32, ptr %260, align 4
  %262 = add i32 %261, 1
  store i32 %262, ptr %260, align 4
  br label %263

263:                                              ; preds = %255, %240, %218
  ret void
}