; Function Attrs: nounwind uwtable
define hidden void @zif_stream_context_get_default(ptr noundef %0, ptr nocapture noundef writeonly %1) local_unnamed_addr #0 {
  %3 = getelementptr inbounds i8, ptr %0, i64 44
  %4 = load i32, ptr %3, align 4
  %5 = icmp ugt i32 %4, 1
  br i1 %5, label %6, label %7

6:                                                ; preds = %2
  tail call void @zend_wrong_parameters_count_error(i32 noundef 0, i32 noundef 1) #10
  br label %.thread103

7:                                                ; preds = %2
  %8 = icmp eq i32 %4, 0
  br i1 %8, label %.thread93, label %9

9:                                                ; preds = %7
  %10 = getelementptr inbounds i8, ptr %0, i64 80
  %11 = getelementptr inbounds i8, ptr %0, i64 88
  %12 = load i8, ptr %11, align 8
  %.fr = freeze i8 %12
  switch i8 %.fr, label %.thread103 [
    i8 7, label %.thread87
    i8 1, label %.thread93
  ]

.thread87:                                        ; preds = %9
  %13 = load ptr, ptr %10, align 8
  br label %.thread93

.thread103:                                       ; preds = %9, %6
  %.063113 = phi i32 [ 1, %6 ], [ 9, %9 ]
  %.064112 = phi i32 [ 0, %6 ], [ 1, %9 ]
  %.065111 = phi i32 [ 0, %6 ], [ 7, %9 ]
  %.066110 = phi ptr [ null, %6 ], [ %10, %9 ]
  tail call void @zend_wrong_parameter_error(i32 noundef %.063113, i32 noundef %.064112, ptr noundef null, i32 noundef %.065111, ptr noundef %.066110) #10
  br label %33

.thread93:                                        ; preds = %9, %.thread87, %7
  %.2.ph = phi ptr [ %13, %.thread87 ], [ null, %7 ], [ null, %9 ]
  %14 = load ptr, ptr getelementptr inbounds (%struct.php_file_globals, ptr @file_globals, i64 0, i32 7), align 8
  %15 = icmp eq ptr %14, null
  br i1 %15, label %16, label %18

16:                                               ; preds = %.thread93
  %17 = tail call ptr @php_stream_context_alloc() #10
  store ptr %17, ptr getelementptr inbounds (%struct.php_file_globals, ptr @file_globals, i64 0, i32 7), align 8
  br label %18

18:                                               ; preds = %16, %.thread93
  %19 = phi ptr [ %17, %16 ], [ %14, %.thread93 ]
  %.not73 = icmp eq ptr %.2.ph, null
  br i1 %.not73, label %26, label %20

20:                                               ; preds = %18
  %21 = tail call fastcc i32 @parse_context_options(ptr noundef %19, ptr noundef nonnull %.2.ph), !range !5
  %22 = icmp eq i32 %21, -1
  br i1 %22, label %23, label %26

23:                                               ; preds = %20
  %24 = load ptr, ptr getelementptr inbounds (%struct._zend_executor_globals, ptr @executor_globals, i64 0, i32 50), align 8
  %25 = icmp ne ptr %24, null
  tail call void @llvm.assume(i1 %25)
  br label %33

26:                                               ; preds = %18, %20
  %27 = getelementptr inbounds i8, ptr %19, i64 24
  %28 = load ptr, ptr %27, align 8
  store ptr %28, ptr %1, align 8
  %29 = getelementptr inbounds i8, ptr %1, i64 8
  store i32 265, ptr %29, align 8
  %30 = load ptr, ptr %27, align 8
  %31 = load i32, ptr %30, align 4
  %32 = add i32 %31, 1
  store i32 %32, ptr %30, align 4
  br label %33

33:                                               ; preds = %26, %23, %.thread103
  ret void
}